# SymbolsHelper-Confirmed: 4:17.08.0 amd64
libKF5PimCommon.so.5 libkf5pimcommon5 #MINVER#, libkf5pimcommon-plugins
 (optional=templinst)_ZN12KConfigGroup10writeEntryIiEEvPKcRK5QListIT_E6QFlagsIN11KConfigBase15WriteConfigFlagEE@Base 4:16.04
 _ZN9PimCommon10PluginUtil17isPluginActivatedERK11QStringListS3_bRK7QString@Base 4:17.08.0
 _ZN9PimCommon10PluginUtil17loadPluginSettingERK7QStringS3_@Base 4:17.08.0
 _ZN9PimCommon10PluginUtil18savePluginSettingsERK7QStringS3_RK11QStringListS6_@Base 4:17.08.0
 _ZN9PimCommon10PluginUtil20createPluginMetaDataERK15KPluginMetaData@Base 4:17.08.0
 _ZN9PimCommon11NetworkUtil15setLowBandwidthEb@Base 4:16.04
 _ZN9PimCommon11NetworkUtil4selfEv@Base 4:16.04
 _ZN9PimCommon11NetworkUtilC1Ev@Base 4:16.04
 _ZN9PimCommon11NetworkUtilC2Ev@Base 4:16.04
 _ZN9PimCommon13GenericPlugin11qt_metacallEN11QMetaObject4CallEiPPv@Base 4:16.04
 _ZN9PimCommon13GenericPlugin11qt_metacastEPKc@Base 4:16.04
 _ZN9PimCommon13GenericPlugin16staticMetaObjectE@Base 4:16.04
 _ZN9PimCommon13GenericPluginC1EP7QObject@Base 4:16.04
 _ZN9PimCommon13GenericPluginC2EP7QObject@Base 4:16.04
 _ZN9PimCommon13GenericPluginD0Ev@Base 4:16.04
 _ZN9PimCommon13GenericPluginD1Ev@Base 4:16.04
 _ZN9PimCommon13GenericPluginD2Ev@Base 4:16.04
 _ZN9PimCommon14AutoCorrection10readConfigEv@Base 4:16.04
 _ZN9PimCommon14AutoCorrection11autocorrectEbR13QTextDocumentRi@Base 4:16.04
 _ZN9PimCommon14AutoCorrection11setLanguageERK7QStringb@Base 4:16.04
 _ZN9PimCommon14AutoCorrection11writeConfigEv@Base 4:16.04
 _ZN9PimCommon14AutoCorrection12singleSpacesEv@Base 4:16.04
 _ZN9PimCommon14AutoCorrection13autoFractionsEv@Base 4:16.04
 _ZN9PimCommon14AutoCorrection14addAutoCorrectERK7QStringS3_@Base 4:16.04
 _ZN9PimCommon14AutoCorrection14autoFormatURLsEv@Base 4:16.04
 _ZN9PimCommon14AutoCorrection14setSuperScriptEb@Base 4:16.04
 _ZN9PimCommon14AutoCorrection15setSingleSpacesEb@Base 4:16.04
 _ZN9PimCommon14AutoCorrection16setAutoFormatUrlEb@Base 4:16.04
 _ZN9PimCommon14AutoCorrection16setAutoFractionsEb@Base 4:16.04
 _ZN9PimCommon14AutoCorrection17autoBoldUnderlineEv@Base 4:16.04
 _ZN9PimCommon14AutoCorrection18capitalizeWeekDaysEv@Base 4:16.04
 _ZN9PimCommon14AutoCorrection18selectPreviousWordER11QTextCursori@Base 4:16.04
 _ZN9PimCommon14AutoCorrection19addNonBreakingSpaceEv@Base 4:17.08.0
 _ZN9PimCommon14AutoCorrection19advancedAutocorrectEv@Base 4:16.04
 _ZN9PimCommon14AutoCorrection19setNonBreakingSpaceERK5QChar@Base 4:17.08.0
 _ZN9PimCommon14AutoCorrection19superscriptAppendixEv@Base 4:16.04
 _ZN9PimCommon14AutoCorrection20fixTwoUppercaseCharsEv@Base 4:16.04
 _ZN9PimCommon14AutoCorrection20setAutoBoldUnderlineEb@Base 4:16.04
 _ZN9PimCommon14AutoCorrection21setAutocorrectEntriesERK5QHashI7QStringS2_E@Base 4:16.04
 _ZN9PimCommon14AutoCorrection21setCapitalizeWeekDaysEb@Base 4:16.04
 _ZN9PimCommon14AutoCorrection22setAddNonBreakingSpaceEb@Base 4:16.04
 _ZN9PimCommon14AutoCorrection22setAdvancedAutocorrectEb@Base 4:16.04
 _ZN9PimCommon14AutoCorrection22setReplaceDoubleQuotesEb@Base 4:16.04
 _ZN9PimCommon14AutoCorrection22setReplaceSingleQuotesEb@Base 4:16.04
 _ZN9PimCommon14AutoCorrection22setUpperCaseExceptionsERK4QSetI7QStringE@Base 4:16.04
 _ZN9PimCommon14AutoCorrection23setFixTwoUppercaseCharsEb@Base 4:16.04
 _ZN9PimCommon14AutoCorrection24replaceTypographicQuotesEv@Base 4:16.04
 _ZN9PimCommon14AutoCorrection24setEnabledAutoCorrectionEb@Base 4:16.04
 _ZN9PimCommon14AutoCorrection25readAutoCorrectionXmlFileEb@Base 4:16.04
 _ZN9PimCommon14AutoCorrection26setTypographicDoubleQuotesENS0_17TypographicQuotesE@Base 4:16.04
 _ZN9PimCommon14AutoCorrection26setTypographicSingleQuotesENS0_17TypographicQuotesE@Base 4:16.04
 _ZN9PimCommon14AutoCorrection26writeAutoCorrectionXmlFileERK7QString@Base 4:16.04
 _ZN9PimCommon14AutoCorrection27setTwoUpperLetterExceptionsERK4QSetI7QStringE@Base 4:16.04
 _ZN9PimCommon14AutoCorrection28uppercaseFirstCharOfSentenceEv@Base 4:16.04
 _ZN9PimCommon14AutoCorrection31setUppercaseFirstCharOfSentenceEb@Base 4:16.04
 _ZN9PimCommon14AutoCorrection33selectStringOnMaximumSearchStringER11QTextCursori@Base 4:17.08.0
 _ZN9PimCommon14AutoCorrection9linkColorEv@Base 4:17.08.0
 _ZN9PimCommon14AutoCorrectionC1Ev@Base 4:16.04
 _ZN9PimCommon14AutoCorrectionC2Ev@Base 4:16.04
 _ZN9PimCommon14AutoCorrectionD1Ev@Base 4:16.04
 _ZN9PimCommon14AutoCorrectionD2Ev@Base 4:16.04
 _ZN9PimCommon14CustomTreeView10paintEventEP11QPaintEvent@Base 4:16.04
 _ZN9PimCommon14CustomTreeView11changeEventEP6QEvent@Base 4:16.04
 _ZN9PimCommon14CustomTreeView11qt_metacallEN11QMetaObject4CallEiPPv@Base 4:16.04
 _ZN9PimCommon14CustomTreeView11qt_metacastEPKc@Base 4:16.04
 _ZN9PimCommon14CustomTreeView14setDefaultTextERK7QString@Base 4:16.04
 _ZN9PimCommon14CustomTreeView16staticMetaObjectE@Base 4:16.04
 _ZN9PimCommon14CustomTreeView18generalFontChangedEv@Base 4:16.04
 _ZN9PimCommon14CustomTreeView18setShowDefaultTextEb@Base 4:16.04
 _ZN9PimCommon14CustomTreeView21generalPaletteChangedEv@Base 4:16.04
 _ZN9PimCommon14CustomTreeViewC1EP7QWidget@Base 4:16.04
 _ZN9PimCommon14CustomTreeViewC2EP7QWidget@Base 4:16.04
 _ZN9PimCommon14CustomTreeViewD0Ev@Base 4:16.04
 _ZN9PimCommon14CustomTreeViewD1Ev@Base 4:16.04
 _ZN9PimCommon14CustomTreeViewD2Ev@Base 4:16.04
 _ZN9PimCommon14NetworkManager11qt_metacallEN11QMetaObject4CallEiPPv@Base 4:17.08.0
 _ZN9PimCommon14NetworkManager11qt_metacastEPKc@Base 4:17.08.0
 _ZN9PimCommon14NetworkManager16staticMetaObjectE@Base 4:17.08.0
 _ZN9PimCommon14NetworkManager4selfEv@Base 4:17.08.0
 _ZN9PimCommon14NetworkManagerC1EP7QObject@Base 4:17.08.0
 _ZN9PimCommon14NetworkManagerC2EP7QObject@Base 4:17.08.0
 _ZN9PimCommon14NetworkManagerD0Ev@Base 4:17.08.0
 _ZN9PimCommon14NetworkManagerD1Ev@Base 4:17.08.0
 _ZN9PimCommon14NetworkManagerD2Ev@Base 4:17.08.0
 _ZN9PimCommon15MigrateFileInfo10setVersionEi@Base 4:16.04
 _ZN9PimCommon15MigrateFileInfo15setFilePatternsERK11QStringList@Base 4:16.04
 _ZN9PimCommon15MigrateFileInfo7setPathERK7QString@Base 4:16.04
 _ZN9PimCommon15MigrateFileInfo7setTypeERK7QString@Base 4:16.04
 _ZN9PimCommon15MigrateFileInfo9setFolderEb@Base 4:16.04
 _ZN9PimCommon15MigrateFileInfoC1Ev@Base 4:16.04
 _ZN9PimCommon15MigrateFileInfoC2Ev@Base 4:16.04
 _ZN9PimCommon15MinimumComboBox11qt_metacallEN11QMetaObject4CallEiPPv@Base 4:16.04
 _ZN9PimCommon15MinimumComboBox11qt_metacastEPKc@Base 4:16.04
 _ZN9PimCommon15MinimumComboBox16staticMetaObjectE@Base 4:16.04
 _ZN9PimCommon15MinimumComboBoxC1EP7QWidget@Base 4:16.04
 _ZN9PimCommon15MinimumComboBoxC2EP7QWidget@Base 4:16.04
 _ZN9PimCommon15TemplateManager11qt_metacallEN11QMetaObject4CallEiPPv@Base 4:16.04
 _ZN9PimCommon15TemplateManager11qt_metacastEPKc@Base 4:16.04
 _ZN9PimCommon15TemplateManager12loadTemplateERK7QStringS3_@Base 4:16.04
 _ZN9PimCommon15TemplateManager13loadTemplatesEb@Base 4:16.04
 _ZN9PimCommon15TemplateManager16staticMetaObjectE@Base 4:16.04
 _ZN9PimCommon15TemplateManager20slotDirectoryChangedEv@Base 4:16.04
 _ZN9PimCommon15TemplateManager24initTemplatesDirectoriesERK7QString@Base 4:16.04
 _ZN9PimCommon15TemplateManagerC1ERK7QStringPNS_18TemplateListWidgetE@Base 4:16.04
 _ZN9PimCommon15TemplateManagerC2ERK7QStringPNS_18TemplateListWidgetE@Base 4:16.04
 _ZN9PimCommon15TemplateManagerD0Ev@Base 4:16.04
 _ZN9PimCommon15TemplateManagerD1Ev@Base 4:16.04
 _ZN9PimCommon15TemplateManagerD2Ev@Base 4:16.04
 _ZN9PimCommon16LineEditPassword11qt_metacallEN11QMetaObject4CallEiPPv@Base 4:17.08.0
 _ZN9PimCommon16LineEditPassword11qt_metacastEPKc@Base 4:17.08.0
 _ZN9PimCommon16LineEditPassword11setPasswordERK7QString@Base 4:17.08.0
 _ZN9PimCommon16LineEditPassword16staticMetaObjectE@Base 4:17.08.0
 _ZN9PimCommon16LineEditPassword23LineEditPasswordPrivate10initializeEv@Base 4:17.08.0
 _ZN9PimCommon16LineEditPassword23LineEditPasswordPrivate11qt_metacallEN11QMetaObject4CallEiPPv@Base 4:17.08.0
 _ZN9PimCommon16LineEditPassword23LineEditPasswordPrivate11qt_metacastEPKc@Base 4:17.08.0
 _ZN9PimCommon16LineEditPassword23LineEditPasswordPrivate14toggleEchoModeEv@Base 4:17.08.0
 _ZN9PimCommon16LineEditPassword23LineEditPasswordPrivate16staticMetaObjectE@Base 4:17.08.0
 _ZN9PimCommon16LineEditPassword23LineEditPasswordPrivate24showToggleEchoModeActionERK7QString@Base 4:17.08.0
 _ZN9PimCommon16LineEditPasswordC1EP7QWidget@Base 4:17.08.0
 _ZN9PimCommon16LineEditPasswordC2EP7QWidget@Base 4:17.08.0
 _ZN9PimCommon16LineEditPasswordD0Ev@Base 4:17.08.0
 _ZN9PimCommon16LineEditPasswordD1Ev@Base 4:17.08.0
 _ZN9PimCommon16LineEditPasswordD2Ev@Base 4:17.08.0
 _ZN9PimCommon16RenameFileDialog11qt_metacallEN11QMetaObject4CallEiPPv@Base 4:16.04
 _ZN9PimCommon16RenameFileDialog11qt_metacastEPKc@Base 4:16.04
 _ZN9PimCommon16RenameFileDialog16staticMetaObjectE@Base 4:16.04
 _ZN9PimCommon16RenameFileDialog17slotIgnorePressedEv@Base 4:16.04
 _ZN9PimCommon16RenameFileDialog17slotRenamePressedEv@Base 4:16.04
 _ZN9PimCommon16RenameFileDialog19slotApplyAllPressedEv@Base 4:16.04
 _ZN9PimCommon16RenameFileDialog20slotOverwritePressedEv@Base 4:16.04
 _ZN9PimCommon16RenameFileDialog25slotSuggestNewNamePressedEv@Base 4:16.04
 _ZN9PimCommon16RenameFileDialogC1ERK4QUrlbP7QWidget@Base 4:16.04
 _ZN9PimCommon16RenameFileDialogC2ERK4QUrlbP7QWidget@Base 4:16.04
 _ZN9PimCommon16RenameFileDialogD0Ev@Base 4:16.04
 _ZN9PimCommon16RenameFileDialogD1Ev@Base 4:16.04
 _ZN9PimCommon16RenameFileDialogD2Ev@Base 4:16.04
 _ZN9PimCommon16TranslatorWidget10readConfigEv@Base 4:16.04
 _ZN9PimCommon16TranslatorWidget11qt_metacallEN11QMetaObject4CallEiPPv@Base 4:16.04
 _ZN9PimCommon16TranslatorWidget11qt_metacastEPKc@Base 4:16.04
 _ZN9PimCommon16TranslatorWidget11writeConfigEv@Base 4:16.04
 _ZN9PimCommon16TranslatorWidget13setStandaloneEb@Base 4:16.04
 _ZN9PimCommon16TranslatorWidget13slotTranslateEv@Base 4:16.04
 _ZN9PimCommon16TranslatorWidget14toolsWasClosedEv@Base 4:16.04
 _ZN9PimCommon16TranslatorWidget15slotCloseWidgetEv@Base 4:16.04
 _ZN9PimCommon16TranslatorWidget15slotTextChangedEv@Base 4:16.04
 _ZN9PimCommon16TranslatorWidget16staticMetaObjectE@Base 4:16.04
 _ZN9PimCommon16TranslatorWidget17slotConfigChangedEv@Base 4:16.04
 _ZN9PimCommon16TranslatorWidget17slotTranslateDoneEv@Base 4:16.04
 _ZN9PimCommon16TranslatorWidget18setTextToTranslateERK7QString@Base 4:16.04
 _ZN9PimCommon16TranslatorWidget18slotInvertLanguageEv@Base 4:16.04
 _ZN9PimCommon16TranslatorWidget19slotTranslateFailedEbRK7QString@Base 4:16.04
 _ZN9PimCommon16TranslatorWidget23slotFromLanguageChangedEib@Base 4:16.04
 _ZN9PimCommon16TranslatorWidget4initEv@Base 4:16.04
 _ZN9PimCommon16TranslatorWidget5eventEP6QEvent@Base 4:16.04
 _ZN9PimCommon16TranslatorWidget9slotClearEv@Base 4:16.04
 _ZN9PimCommon16TranslatorWidget9slotDebugEv@Base 4:16.04
 _ZN9PimCommon16TranslatorWidgetC1EP7QWidget@Base 4:16.04
 _ZN9PimCommon16TranslatorWidgetC1ERK7QStringP7QWidget@Base 4:16.04
 _ZN9PimCommon16TranslatorWidgetC2EP7QWidget@Base 4:16.04
 _ZN9PimCommon16TranslatorWidgetC2ERK7QStringP7QWidget@Base 4:16.04
 _ZN9PimCommon16TranslatorWidgetD0Ev@Base 4:16.04
 _ZN9PimCommon16TranslatorWidgetD1Ev@Base 4:16.04
 _ZN9PimCommon16TranslatorWidgetD2Ev@Base 4:16.04
 _ZN9PimCommon17CustomToolsPlugin11qt_metacallEN11QMetaObject4CallEiPPv@Base 4:16.04
 _ZN9PimCommon17CustomToolsPlugin11qt_metacastEPKc@Base 4:16.04
 _ZN9PimCommon17CustomToolsPlugin16staticMetaObjectE@Base 4:16.04
 _ZN9PimCommon17CustomToolsPluginC1EP7QObject@Base 4:16.04
 _ZN9PimCommon17CustomToolsPluginC2EP7QObject@Base 4:16.04
 _ZN9PimCommon17CustomToolsPluginD0Ev@Base 4:16.04
 _ZN9PimCommon17CustomToolsPluginD1Ev@Base 4:16.04
 _ZN9PimCommon17CustomToolsPluginD2Ev@Base 4:16.04
 _ZN9PimCommon17PimCommonSettings11qt_metacallEN11QMetaObject4CallEiPPv@Base 4:16.04
 _ZN9PimCommon17PimCommonSettings11qt_metacastEPKc@Base 4:16.04
 _ZN9PimCommon17PimCommonSettings11requestSyncEv@Base 4:16.04
 _ZN9PimCommon17PimCommonSettings11slotSyncNowEv@Base 4:16.04
 _ZN9PimCommon17PimCommonSettings16staticMetaObjectE@Base 4:16.04
 _ZN9PimCommon17PimCommonSettings4selfEv@Base 4:16.04
 _ZN9PimCommon17PimCommonSettings5mSelfE@Base 4:16.04
 _ZN9PimCommon17PimCommonSettingsC1Ev@Base 4:16.04
 _ZN9PimCommon17PimCommonSettingsC2Ev@Base 4:16.04
 _ZN9PimCommon17PimCommonSettingsD0Ev@Base 4:16.04
 _ZN9PimCommon17PimCommonSettingsD1Ev@Base 4:16.04
 _ZN9PimCommon17PimCommonSettingsD2Ev@Base 4:16.04
 _ZN9PimCommon18SpellCheckLineEdit11qt_metacallEN11QMetaObject4CallEiPPv@Base 4:16.04
 _ZN9PimCommon18SpellCheckLineEdit11qt_metacastEPKc@Base 4:16.04
 _ZN9PimCommon18SpellCheckLineEdit13keyPressEventEP9QKeyEvent@Base 4:16.04
 _ZN9PimCommon18SpellCheckLineEdit16staticMetaObjectE@Base 4:16.04
 _ZN9PimCommon18SpellCheckLineEdit18insertFromMimeDataEPK9QMimeData@Base 4:16.04
 _ZN9PimCommon18SpellCheckLineEdit7focusUpEv@Base 4:16.04
 _ZN9PimCommon18SpellCheckLineEdit9focusDownEv@Base 4:16.04
 _ZN9PimCommon18SpellCheckLineEditC1EP7QWidgetRK7QString@Base 4:16.04
 _ZN9PimCommon18SpellCheckLineEditC2EP7QWidgetRK7QString@Base 4:16.04
 _ZN9PimCommon18SpellCheckLineEditD0Ev@Base 4:16.04
 _ZN9PimCommon18SpellCheckLineEditD1Ev@Base 4:16.04
 _ZN9PimCommon18SpellCheckLineEditD2Ev@Base 4:16.04
 _ZN9PimCommon18TemplateListWidget11qt_metacallEN11QMetaObject4CallEiPPv@Base 4:16.04
 _ZN9PimCommon18TemplateListWidget11qt_metacastEPKc@Base 4:16.04
 _ZN9PimCommon18TemplateListWidget13loadTemplatesEv@Base 4:16.04
 _ZN9PimCommon18TemplateListWidget14addNewTemplateER7QStringS2_@Base 4:16.04
 _ZN9PimCommon18TemplateListWidget14insertTemplateERK7QString@Base 4:16.04
 _ZN9PimCommon18TemplateListWidget14modifyTemplateER7QStringS2_b@Base 4:16.04
 _ZN9PimCommon18TemplateListWidget16defaultTemplatesEv@Base 4:16.04
 _ZN9PimCommon18TemplateListWidget16staticMetaObjectE@Base 4:16.04
 _ZN9PimCommon18TemplateListWidget17insertNewTemplateERK7QString@Base 4:16.04
 _ZN9PimCommon18TemplateListWidget18addDefaultTemplateERK7QStringS3_@Base 4:16.04
 _ZN9PimCommon18TemplateListWidget22setKNewStuffConfigFileERK7QString@Base 4:16.04
 _ZN9PimCommon18TemplateListWidget9dropEventEP10QDropEvent@Base 4:16.04
 _ZN9PimCommon18TemplateListWidgetC1ERK7QStringP7QWidget@Base 4:16.04
 _ZN9PimCommon18TemplateListWidgetC2ERK7QStringP7QWidget@Base 4:16.04
 _ZN9PimCommon18TemplateListWidgetD0Ev@Base 4:16.04
 _ZN9PimCommon18TemplateListWidgetD1Ev@Base 4:16.04
 _ZN9PimCommon18TemplateListWidgetD2Ev@Base 4:16.04
 _ZN9PimCommon18TranslatorTextEdit11qt_metacallEN11QMetaObject4CallEiPPv@Base 4:16.04
 _ZN9PimCommon18TranslatorTextEdit11qt_metacastEPKc@Base 4:16.04
 _ZN9PimCommon18TranslatorTextEdit13translateTextEv@Base 4:16.04
 _ZN9PimCommon18TranslatorTextEdit16staticMetaObjectE@Base 4:16.04
 _ZN9PimCommon18TranslatorTextEdit9dropEventEP10QDropEvent@Base 4:16.04
 _ZN9PimCommon18TranslatorTextEditC1EP7QWidget@Base 4:16.04
 _ZN9PimCommon18TranslatorTextEditC2EP7QWidget@Base 4:16.04
 _ZN9PimCommon19CustomToolsWidgetNg10insertTextERK7QString@Base 4:16.04
 _ZN9PimCommon19CustomToolsWidgetNg11qt_metacallEN11QMetaObject4CallEiPPv@Base 4:16.04
 _ZN9PimCommon19CustomToolsWidgetNg11qt_metacastEPKc@Base 4:16.04
 _ZN9PimCommon19CustomToolsWidgetNg13toolActivatedEv@Base 4:16.04
 _ZN9PimCommon19CustomToolsWidgetNg14initializeViewEP17KActionCollection@Base 4:16.04
 _ZN9PimCommon19CustomToolsWidgetNg16slotActivateViewEP7QWidget@Base 4:16.04
 _ZN9PimCommon19CustomToolsWidgetNg16staticMetaObjectE@Base 4:16.04
 _ZN9PimCommon19CustomToolsWidgetNg18slotToolsWasClosedEv@Base 4:16.04
 _ZN9PimCommon19CustomToolsWidgetNg7setTextERK7QString@Base 4:16.04
 _ZN9PimCommon19CustomToolsWidgetNgC1EP17KActionCollectionP7QWidget@Base 4:16.04
 _ZN9PimCommon19CustomToolsWidgetNgC2EP17KActionCollectionP7QWidget@Base 4:16.04
 _ZN9PimCommon19CustomToolsWidgetNgD0Ev@Base 4:16.04
 _ZN9PimCommon19CustomToolsWidgetNgD1Ev@Base 4:16.04
 _ZN9PimCommon19CustomToolsWidgetNgD2Ev@Base 4:16.04
 _ZN9PimCommon19LogActivitiesDialog10logClearedEv@Base 4:17.08.0
 _ZN9PimCommon19LogActivitiesDialog10readConfigEv@Base 4:17.08.0
 _ZN9PimCommon19LogActivitiesDialog11qt_metacallEN11QMetaObject4CallEiPPv@Base 4:17.08.0
 _ZN9PimCommon19LogActivitiesDialog11qt_metacastEPKc@Base 4:17.08.0
 _ZN9PimCommon19LogActivitiesDialog11writeConfigEv@Base 4:17.08.0
 _ZN9PimCommon19LogActivitiesDialog16staticMetaObjectE@Base 4:17.08.0
 _ZN9PimCommon19LogActivitiesDialog17slotLogEntryAddedERK7QString@Base 4:17.08.0
 _ZN9PimCommon19LogActivitiesDialog19slotLogEntryClearedEv@Base 4:17.08.0
 _ZN9PimCommon19LogActivitiesDialog23slotEnableLogActivitiesEb@Base 4:17.08.0
 _ZN9PimCommon19LogActivitiesDialog6setLogERK7QString@Base 4:17.08.0
 _ZN9PimCommon19LogActivitiesDialog8slotSaveEv@Base 4:17.08.0
 _ZN9PimCommon19LogActivitiesDialog9slotClearEv@Base 4:17.08.0
 _ZN9PimCommon19LogActivitiesDialogC1EP7QWidget@Base 4:17.08.0
 _ZN9PimCommon19LogActivitiesDialogC2EP7QWidget@Base 4:17.08.0
 _ZN9PimCommon19LogActivitiesDialogD0Ev@Base 4:17.08.0
 _ZN9PimCommon19LogActivitiesDialogD1Ev@Base 4:17.08.0
 _ZN9PimCommon19LogActivitiesDialogD2Ev@Base 4:17.08.0
 _ZN9PimCommon19LogActivitiesWidget11addLogEntryERK7QString@Base 4:17.08.0
 _ZN9PimCommon19LogActivitiesWidget11qt_metacallEN11QMetaObject4CallEiPPv@Base 4:17.08.0
 _ZN9PimCommon19LogActivitiesWidget11qt_metacastEPKc@Base 4:17.08.0
 _ZN9PimCommon19LogActivitiesWidget11textChangedEb@Base 4:17.08.0
 _ZN9PimCommon19LogActivitiesWidget15slotTextChangedEv@Base 4:17.08.0
 _ZN9PimCommon19LogActivitiesWidget16staticMetaObjectE@Base 4:17.08.0
 _ZN9PimCommon19LogActivitiesWidget5clearEv@Base 4:17.08.0
 _ZN9PimCommon19LogActivitiesWidget6setLogERK7QString@Base 4:17.08.0
 _ZN9PimCommon19LogActivitiesWidgetC1EP7QWidget@Base 4:17.08.0
 _ZN9PimCommon19LogActivitiesWidgetC2EP7QWidget@Base 4:17.08.0
 _ZN9PimCommon19LogActivitiesWidgetD0Ev@Base 4:17.08.0
 _ZN9PimCommon19LogActivitiesWidgetD1Ev@Base 4:17.08.0
 _ZN9PimCommon19LogActivitiesWidgetD2Ev@Base 4:17.08.0
 _ZN9PimCommon20AutoCorrectionWidget10loadConfigEv@Base 4:16.04
 _ZN9PimCommon20AutoCorrectionWidget11emitChangedEv@Base 4:16.04
 _ZN9PimCommon20AutoCorrectionWidget11qt_metacallEN11QMetaObject4CallEiPPv@Base 4:16.04
 _ZN9PimCommon20AutoCorrectionWidget11qt_metacastEPKc@Base 4:16.04
 _ZN9PimCommon20AutoCorrectionWidget11setLanguageERK7QString@Base 4:16.04
 _ZN9PimCommon20AutoCorrectionWidget11writeConfigEv@Base 4:16.04
 _ZN9PimCommon20AutoCorrectionWidget14changeLanguageEi@Base 4:16.04
 _ZN9PimCommon20AutoCorrectionWidget14resetToDefaultEv@Base 4:16.04
 _ZN9PimCommon20AutoCorrectionWidget16staticMetaObjectE@Base 4:16.04
 _ZN9PimCommon20AutoCorrectionWidget17setAutoCorrectionEPNS_14AutoCorrectionE@Base 4:16.04
 _ZN9PimCommon20AutoCorrectionWidget18enableDoubleQuotesEb@Base 4:16.04
 _ZN9PimCommon20AutoCorrectionWidget18enableSingleQuotesEb@Base 4:16.04
 _ZN9PimCommon20AutoCorrectionWidget18setFindReplaceTextEP15QTreeWidgetItemi@Base 4:16.04
 _ZN9PimCommon20AutoCorrectionWidget19abbreviationChangedERK7QString@Base 4:16.04
 _ZN9PimCommon20AutoCorrectionWidget19addAutocorrectEntryEv@Base 4:16.04
 _ZN9PimCommon20AutoCorrectionWidget20addAbbreviationEntryEv@Base 4:16.04
 _ZN9PimCommon20AutoCorrectionWidget21addAutoCorrectEntriesEv@Base 4:16.04
 _ZN9PimCommon20AutoCorrectionWidget21enableAddRemoveButtonEv@Base 4:16.04
 _ZN9PimCommon20AutoCorrectionWidget21twoUpperLetterChangedERK7QString@Base 4:16.04
 _ZN9PimCommon20AutoCorrectionWidget21updateAddRemoveButtonEv@Base 4:16.04
 _ZN9PimCommon20AutoCorrectionWidget22addTwoUpperLetterEntryEv@Base 4:16.04
 _ZN9PimCommon20AutoCorrectionWidget22removeAutocorrectEntryEv@Base 4:16.04
 _ZN9PimCommon20AutoCorrectionWidget22setDefaultDoubleQuotesEv@Base 4:16.04
 _ZN9PimCommon20AutoCorrectionWidget22setDefaultSingleQuotesEv@Base 4:16.04
 _ZN9PimCommon20AutoCorrectionWidget23enableAdvAutocorrectionEb@Base 4:16.04
 _ZN9PimCommon20AutoCorrectionWidget23removeAbbreviationEntryEv@Base 4:16.04
 _ZN9PimCommon20AutoCorrectionWidget24slotExportAutoCorrectionEv@Base 4:16.04
 _ZN9PimCommon20AutoCorrectionWidget24slotImportAutoCorrectionEP7QAction@Base 4:16.04
 _ZN9PimCommon20AutoCorrectionWidget25removeTwoUpperLetterEntryEv@Base 4:16.04
 _ZN9PimCommon20AutoCorrectionWidget25selectDoubleQuoteCharOpenEv@Base 4:16.04
 _ZN9PimCommon20AutoCorrectionWidget25selectSingleQuoteCharOpenEv@Base 4:16.04
 _ZN9PimCommon20AutoCorrectionWidget26selectDoubleQuoteCharCloseEv@Base 4:16.04
 _ZN9PimCommon20AutoCorrectionWidget26selectSingleQuoteCharCloseEv@Base 4:16.04
 _ZN9PimCommon20AutoCorrectionWidget30loadAutoCorrectionAndExceptionEv@Base 4:16.04
 _ZN9PimCommon20AutoCorrectionWidget30slotEnableDisableTwoUpperEntryEv@Base 4:16.04
 _ZN9PimCommon20AutoCorrectionWidget32slotEnableDisableAbreviationListEv@Base 4:16.04
 _ZN9PimCommon20AutoCorrectionWidget36loadGlobalAutoCorrectionAndExceptionEv@Base 4:16.04
 _ZN9PimCommon20AutoCorrectionWidget7changedEv@Base 4:16.04
 _ZN9PimCommon20AutoCorrectionWidgetC1EP7QWidget@Base 4:16.04
 _ZN9PimCommon20AutoCorrectionWidgetC2EP7QWidget@Base 4:16.04
 _ZN9PimCommon20AutoCorrectionWidgetD0Ev@Base 4:16.04
 _ZN9PimCommon20AutoCorrectionWidgetD1Ev@Base 4:16.04
 _ZN9PimCommon20AutoCorrectionWidgetD2Ev@Base 4:16.04
 _ZN9PimCommon20GenericPluginManager11qt_metacallEN11QMetaObject4CallEiPPv@Base 4:16.04
 _ZN9PimCommon20GenericPluginManager11qt_metacastEPKc@Base 4:16.04
 _ZN9PimCommon20GenericPluginManager13setPluginNameERK7QString@Base 4:16.04
 _ZN9PimCommon20GenericPluginManager16staticMetaObjectE@Base 4:16.04
 _ZN9PimCommon20GenericPluginManager17initializePluginsEv@Base 4:16.04
 _ZN9PimCommon20GenericPluginManager18setServiceTypeNameERK7QString@Base 4:16.04
 _ZN9PimCommon20GenericPluginManager20pluginFromIdentifierERK7QString@Base 4:17.08.0
 _ZN9PimCommon20GenericPluginManager4selfEv@Base 4:16.04
 _ZN9PimCommon20GenericPluginManagerC1EP7QObject@Base 4:16.04
 _ZN9PimCommon20GenericPluginManagerC2EP7QObject@Base 4:16.04
 _ZN9PimCommon20GenericPluginManagerD0Ev@Base 4:16.04
 _ZN9PimCommon20GenericPluginManagerD1Ev@Base 4:16.04
 _ZN9PimCommon20GenericPluginManagerD2Ev@Base 4:16.04
 _ZN9PimCommon20LogActivitiesManager11qt_metacallEN11QMetaObject4CallEiPPv@Base 4:17.08.0
 _ZN9PimCommon20LogActivitiesManager11qt_metacastEPKc@Base 4:17.08.0
 _ZN9PimCommon20LogActivitiesManager13logEntryAddedERK7QString@Base 4:17.08.0
 _ZN9PimCommon20LogActivitiesManager15logEntryClearedEv@Base 4:17.08.0
 _ZN9PimCommon20LogActivitiesManager16staticMetaObjectE@Base 4:17.08.0
 _ZN9PimCommon20LogActivitiesManager22setEnableLogActivitiesEb@Base 4:17.08.0
 _ZN9PimCommon20LogActivitiesManager23showLogActivitiesDialogEv@Base 4:17.08.0
 _ZN9PimCommon20LogActivitiesManager4selfEv@Base 4:17.08.0
 _ZN9PimCommon20LogActivitiesManager5clearEv@Base 4:17.08.0
 _ZN9PimCommon20LogActivitiesManager9appendLogERK7QString@Base 4:17.08.0
 _ZN9PimCommon20LogActivitiesManagerC1EP7QObject@Base 4:17.08.0
 _ZN9PimCommon20LogActivitiesManagerC2EP7QObject@Base 4:17.08.0
 _ZN9PimCommon20LogActivitiesManagerD0Ev@Base 4:17.08.0
 _ZN9PimCommon20LogActivitiesManagerD1Ev@Base 4:17.08.0
 _ZN9PimCommon20LogActivitiesManagerD2Ev@Base 4:17.08.0
 _ZN9PimCommon21AbstractGenericPlugin11qt_metacallEN11QMetaObject4CallEiPPv@Base 4:17.08.0
 _ZN9PimCommon21AbstractGenericPlugin11qt_metacastEPKc@Base 4:17.08.0
 _ZN9PimCommon21AbstractGenericPlugin12setIsEnabledEb@Base 4:17.08.0
 _ZN9PimCommon21AbstractGenericPlugin16staticMetaObjectE@Base 4:17.08.0
 _ZN9PimCommon21AbstractGenericPlugin19showConfigureDialogEP7QWidget@Base 4:17.08.0
 _ZN9PimCommon21AbstractGenericPluginC1EP7QObject@Base 4:17.08.0
 _ZN9PimCommon21AbstractGenericPluginC2EP7QObject@Base 4:17.08.0
 _ZN9PimCommon21AbstractGenericPluginD0Ev@Base 4:17.08.0
 _ZN9PimCommon21AbstractGenericPluginD1Ev@Base 4:17.08.0
 _ZN9PimCommon21AbstractGenericPluginD2Ev@Base 4:17.08.0
 _ZN9PimCommon21ConfigurePluginDialog10initLayoutEv@Base 4:17.08.0
 _ZN9PimCommon21ConfigurePluginDialog10readConfigEv@Base 4:17.08.0
 _ZN9PimCommon21ConfigurePluginDialog10saveConfigEv@Base 4:17.08.0
 _ZN9PimCommon21ConfigurePluginDialog11qt_metacallEN11QMetaObject4CallEiPPv@Base 4:17.08.0
 _ZN9PimCommon21ConfigurePluginDialog11qt_metacastEPKc@Base 4:17.08.0
 _ZN9PimCommon21ConfigurePluginDialog12slotAcceptedEv@Base 4:17.08.0
 _ZN9PimCommon21ConfigurePluginDialog15slotHelpClickedEv@Base 4:17.08.0
 _ZN9PimCommon21ConfigurePluginDialog16staticMetaObjectE@Base 4:17.08.0
 _ZN9PimCommon21ConfigurePluginDialog25slotRestoreDefaultClickedEv@Base 4:17.08.0
 _ZN9PimCommon21ConfigurePluginDialog4helpEv@Base 4:17.08.0
 _ZN9PimCommon21ConfigurePluginDialog5resetEv@Base 4:17.08.0
 _ZN9PimCommon21ConfigurePluginDialog8showHelpERK7QStringS3_@Base 4:17.08.0
 _ZN9PimCommon21ConfigurePluginDialogC1EP7QWidget@Base 4:17.08.0
 _ZN9PimCommon21ConfigurePluginDialogC2EP7QWidget@Base 4:17.08.0
 _ZN9PimCommon21ConfigurePluginDialogD0Ev@Base 4:17.08.0
 _ZN9PimCommon21ConfigurePluginDialogD1Ev@Base 4:17.08.0
 _ZN9PimCommon21ConfigurePluginDialogD2Ev@Base 4:17.08.0
 _ZN9PimCommon21KActionMenuChangeCase11qt_metacallEN11QMetaObject4CallEiPPv@Base 4:16.04
 _ZN9PimCommon21KActionMenuChangeCase11qt_metacastEPKc@Base 4:16.04
 _ZN9PimCommon21KActionMenuChangeCase11reverseCaseEv@Base 4:16.04
 _ZN9PimCommon21KActionMenuChangeCase12sentenceCaseEv@Base 4:16.04
 _ZN9PimCommon21KActionMenuChangeCase16staticMetaObjectE@Base 4:16.04
 _ZN9PimCommon21KActionMenuChangeCase24appendInActionCollectionEP17KActionCollection@Base 4:16.04
 _ZN9PimCommon21KActionMenuChangeCase9lowerCaseEv@Base 4:16.04
 _ZN9PimCommon21KActionMenuChangeCase9upperCaseEv@Base 4:16.04
 _ZN9PimCommon21KActionMenuChangeCaseC1EP7QObject@Base 4:16.04
 _ZN9PimCommon21KActionMenuChangeCaseC2EP7QObject@Base 4:16.04
 _ZN9PimCommon21KActionMenuChangeCaseD0Ev@Base 4:16.04
 _ZN9PimCommon21KActionMenuChangeCaseD1Ev@Base 4:16.04
 _ZN9PimCommon21KActionMenuChangeCaseD2Ev@Base 4:16.04
 _ZN9PimCommon21LineEditWithCompleter11qt_metacallEN11QMetaObject4CallEiPPv@Base 4:16.04
 _ZN9PimCommon21LineEditWithCompleter11qt_metacastEPKc@Base 4:16.04
 _ZN9PimCommon21LineEditWithCompleter16contextMenuEventEP17QContextMenuEvent@Base 4:16.04
 _ZN9PimCommon21LineEditWithCompleter16slotClearHistoryEv@Base 4:16.04
 _ZN9PimCommon21LineEditWithCompleter16staticMetaObjectE@Base 4:16.04
 _ZN9PimCommon21LineEditWithCompleterC1EP7QWidget@Base 4:16.04
 _ZN9PimCommon21LineEditWithCompleterC2EP7QWidget@Base 4:16.04
 _ZN9PimCommon21LineEditWithCompleterD0Ev@Base 4:16.04
 _ZN9PimCommon21LineEditWithCompleterD1Ev@Base 4:16.04
 _ZN9PimCommon21LineEditWithCompleterD2Ev@Base 4:16.04
 _ZN9PimCommon21PimCommonSettingsBase4selfEv@Base 4:16.04
 _ZN9PimCommon21PimCommonSettingsBaseC1Ev@Base 4:16.04
 _ZN9PimCommon21PimCommonSettingsBaseC2Ev@Base 4:16.04
 _ZN9PimCommon21PimCommonSettingsBaseD0Ev@Base 4:16.04
 _ZN9PimCommon21PimCommonSettingsBaseD1Ev@Base 4:16.04
 _ZN9PimCommon21PimCommonSettingsBaseD2Ev@Base 4:16.04
 _ZN9PimCommon22AutoCorrectionLanguage11setLanguageERK7QString@Base 4:16.04
 _ZN9PimCommon22AutoCorrectionLanguageC1EP7QWidget@Base 4:16.04
 _ZN9PimCommon22AutoCorrectionLanguageC2EP7QWidget@Base 4:16.04
 _ZN9PimCommon22AutoCorrectionLanguageD0Ev@Base 4:16.04
 _ZN9PimCommon22AutoCorrectionLanguageD1Ev@Base 4:16.04
 _ZN9PimCommon22AutoCorrectionLanguageD2Ev@Base 4:16.04
 _ZN9PimCommon22ConfigurePluginsWidget10initLayoutEPNS_26ConfigurePluginsListWidgetE@Base 4:17.08.0
 _ZN9PimCommon22ConfigurePluginsWidget10initializeEv@Base 4:17.08.0
 _ZN9PimCommon22ConfigurePluginsWidget10readConfigEv@Base 4:17.08.0
 _ZN9PimCommon22ConfigurePluginsWidget11qt_metacallEN11QMetaObject4CallEiPPv@Base 4:17.08.0
 _ZN9PimCommon22ConfigurePluginsWidget11qt_metacastEPKc@Base 4:17.08.0
 _ZN9PimCommon22ConfigurePluginsWidget11writeConfigEv@Base 4:17.08.0
 _ZN9PimCommon22ConfigurePluginsWidget16staticMetaObjectE@Base 4:17.08.0
 _ZN9PimCommon22ConfigurePluginsWidget22doResetToDefaultsOtherEv@Base 4:17.08.0
 _ZN9PimCommon22ConfigurePluginsWidget24doLoadFromGlobalSettingsEv@Base 4:17.08.0
 _ZN9PimCommon22ConfigurePluginsWidget4saveEv@Base 4:17.08.0
 _ZN9PimCommon22ConfigurePluginsWidget7changedEv@Base 4:17.08.0
 _ZN9PimCommon22ConfigurePluginsWidget8defaultsEv@Base 4:17.08.0
 _ZN9PimCommon22ConfigurePluginsWidgetC1EP7QWidget@Base 4:17.08.0
 _ZN9PimCommon22ConfigurePluginsWidgetC1EPNS_26ConfigurePluginsListWidgetEP7QWidget@Base 4:17.08.0
 _ZN9PimCommon22ConfigurePluginsWidgetC2EP7QWidget@Base 4:17.08.0
 _ZN9PimCommon22ConfigurePluginsWidgetC2EPNS_26ConfigurePluginsListWidgetEP7QWidget@Base 4:17.08.0
 _ZN9PimCommon22ConfigurePluginsWidgetD0Ev@Base 4:17.08.0
 _ZN9PimCommon22ConfigurePluginsWidgetD1Ev@Base 4:17.08.0
 _ZN9PimCommon22ConfigurePluginsWidgetD2Ev@Base 4:17.08.0
 _ZN9PimCommon22KPimPrintPreviewDialog10readConfigEv@Base 4:16.04
 _ZN9PimCommon22KPimPrintPreviewDialog11writeConfigEv@Base 4:16.04
 _ZN9PimCommon22KPimPrintPreviewDialogC1EP7QWidget@Base 4:16.04
 _ZN9PimCommon22KPimPrintPreviewDialogC1EP8QPrinterP7QWidget@Base 4:16.04
 _ZN9PimCommon22KPimPrintPreviewDialogC2EP7QWidget@Base 4:16.04
 _ZN9PimCommon22KPimPrintPreviewDialogC2EP8QPrinterP7QWidget@Base 4:16.04
 _ZN9PimCommon22KPimPrintPreviewDialogD0Ev@Base 4:16.04
 _ZN9PimCommon22KPimPrintPreviewDialogD1Ev@Base 4:16.04
 _ZN9PimCommon22KPimPrintPreviewDialogD2Ev@Base 4:16.04
 _ZN9PimCommon22ShareServiceUrlManager11qt_metacallEN11QMetaObject4CallEiPPv@Base 4:16.04
 _ZN9PimCommon22ShareServiceUrlManager11qt_metacastEPKc@Base 4:16.04
 _ZN9PimCommon22ShareServiceUrlManager16staticMetaObjectE@Base 4:16.04
 _ZN9PimCommon22ShareServiceUrlManager18generateServiceUrlERK7QStringS3_NS0_11ServiceTypeE@Base 4:16.04
 _ZN9PimCommon22ShareServiceUrlManager18serviceUrlSelectedENS0_11ServiceTypeE@Base 4:16.04
 _ZN9PimCommon22ShareServiceUrlManager20slotSelectServiceUrlEP7QAction@Base 4:16.04
 _ZN9PimCommon22ShareServiceUrlManager7openUrlERK4QUrl@Base 4:16.04
 _ZN9PimCommon22ShareServiceUrlManagerC1EP7QObject@Base 4:16.04
 _ZN9PimCommon22ShareServiceUrlManagerC2EP7QObject@Base 4:16.04
 _ZN9PimCommon22ShareServiceUrlManagerD0Ev@Base 4:16.04
 _ZN9PimCommon22ShareServiceUrlManagerD1Ev@Base 4:16.04
 _ZN9PimCommon22ShareServiceUrlManagerD2Ev@Base 4:16.04
 _ZN9PimCommon22SieveSyntaxHighlighter11qt_metacallEN11QMetaObject4CallEiPPv@Base 4:16.04
 _ZN9PimCommon22SieveSyntaxHighlighter11qt_metacastEPKc@Base 4:16.04
 _ZN9PimCommon22SieveSyntaxHighlighter15addCapabilitiesERK11QStringList@Base 4:16.04
 _ZN9PimCommon22SieveSyntaxHighlighter16staticMetaObjectE@Base 4:16.04
 _ZN9PimCommon22SieveSyntaxHighlighter4initEv@Base 4:16.04
 _ZN9PimCommon22SieveSyntaxHighlighterC1EP13QTextDocument@Base 4:16.04
 _ZN9PimCommon22SieveSyntaxHighlighterC2EP13QTextDocument@Base 4:16.04
 _ZN9PimCommon22SieveSyntaxHighlighterD0Ev@Base 4:16.04
 _ZN9PimCommon22SieveSyntaxHighlighterD1Ev@Base 4:16.04
 _ZN9PimCommon22SieveSyntaxHighlighterD2Ev@Base 4:16.04
 _ZN9PimCommon22SimpleStringListEditor10aboutToAddER7QString@Base 4:16.04
 _ZN9PimCommon22SimpleStringListEditor10slotModifyEv@Base 4:16.04
 _ZN9PimCommon22SimpleStringListEditor10slotRemoveEv@Base 4:16.04
 _ZN9PimCommon22SimpleStringListEditor11addNewEntryEv@Base 4:16.04
 _ZN9PimCommon22SimpleStringListEditor11modifyEntryERK7QString@Base 4:16.04
 _ZN9PimCommon22SimpleStringListEditor11qt_metacallEN11QMetaObject4CallEiPPv@Base 4:16.04
 _ZN9PimCommon22SimpleStringListEditor11qt_metacastEPKc@Base 4:16.04
 _ZN9PimCommon22SimpleStringListEditor13setButtonTextENS0_10ButtonCodeERK7QString@Base 4:16.04
 _ZN9PimCommon22SimpleStringListEditor13setStringListERK11QStringList@Base 4:16.04
 _ZN9PimCommon22SimpleStringListEditor14containsStringERK7QString@Base 4:16.04
 _ZN9PimCommon22SimpleStringListEditor14insertNewEntryERK7QString@Base 4:16.04
 _ZN9PimCommon22SimpleStringListEditor15slotContextMenuERK6QPoint@Base 4:16.04
 _ZN9PimCommon22SimpleStringListEditor16appendStringListERK11QStringList@Base 4:16.04
 _ZN9PimCommon22SimpleStringListEditor16staticMetaObjectE@Base 4:16.04
 _ZN9PimCommon22SimpleStringListEditor17setAddDialogLabelERK7QString@Base 4:16.04
 _ZN9PimCommon22SimpleStringListEditor19setUpDownAutoRepeatEb@Base 4:16.04
 _ZN9PimCommon22SimpleStringListEditor20slotSelectionChangedEv@Base 4:16.04
 _ZN9PimCommon22SimpleStringListEditor6slotUpEv@Base 4:16.04
 _ZN9PimCommon22SimpleStringListEditor7changedEv@Base 4:16.04
 _ZN9PimCommon22SimpleStringListEditor7slotAddEv@Base 4:16.04
 _ZN9PimCommon22SimpleStringListEditor8slotDownEv@Base 4:16.04
 _ZN9PimCommon22SimpleStringListEditorC1EP7QWidgetNS0_10ButtonCodeERK7QStringS6_S6_S6_@Base 4:16.04
 _ZN9PimCommon22SimpleStringListEditorC2EP7QWidgetNS0_10ButtonCodeERK7QStringS6_S6_S6_@Base 4:16.04
 _ZN9PimCommon22SimpleStringListEditorD0Ev@Base 4:16.04
 _ZN9PimCommon22SimpleStringListEditorD1Ev@Base 4:16.04
 _ZN9PimCommon22SimpleStringListEditorD2Ev@Base 4:16.04
 _ZN9PimCommon23MigrateApplicationFiles10setVersionEi@Base 4:16.04
 _ZN9PimCommon23MigrateApplicationFiles11migrateDoneEv@Base 4:16.04
 _ZN9PimCommon23MigrateApplicationFiles11migrateFileERKNS_15MigrateFileInfoE@Base 4:16.04
 _ZN9PimCommon23MigrateApplicationFiles11qt_metacallEN11QMetaObject4CallEiPPv@Base 4:16.04
 _ZN9PimCommon23MigrateApplicationFiles11qt_metacastEPKc@Base 4:16.04
 _ZN9PimCommon23MigrateApplicationFiles11writeConfigEv@Base 4:16.04
 _ZN9PimCommon23MigrateApplicationFiles13migrateConfigEv@Base 4:16.04
 _ZN9PimCommon23MigrateApplicationFiles13migrateFolderERKNS_15MigrateFileInfoE@Base 4:16.04
 _ZN9PimCommon23MigrateApplicationFiles15copyRecursivelyERK7QStringS3_@Base 4:16.04
 _ZN9PimCommon23MigrateApplicationFiles16checkIfNecessaryEv@Base 4:16.04
 _ZN9PimCommon23MigrateApplicationFiles16staticMetaObjectE@Base 4:16.04
 _ZN9PimCommon23MigrateApplicationFiles17insertMigrateInfoERKNS_15MigrateFileInfoE@Base 4:16.04
 _ZN9PimCommon23MigrateApplicationFiles17setConfigFileNameERK7QString@Base 4:16.04
 _ZN9PimCommon23MigrateApplicationFiles18setApplicationNameERK7QString@Base 4:16.04
 _ZN9PimCommon23MigrateApplicationFiles23setCurrentConfigVersionEi@Base 4:16.04
 _ZN9PimCommon23MigrateApplicationFiles5startEv@Base 4:16.04
 _ZN9PimCommon23MigrateApplicationFiles8finishedEv@Base 4:16.04
 _ZN9PimCommon23MigrateApplicationFilesC1EP7QObject@Base 4:16.04
 _ZN9PimCommon23MigrateApplicationFilesC2EP7QObject@Base 4:16.04
 _ZN9PimCommon23MigrateApplicationFilesD0Ev@Base 4:16.04
 _ZN9PimCommon23MigrateApplicationFilesD1Ev@Base 4:16.04
 _ZN9PimCommon23MigrateApplicationFilesD2Ev@Base 4:16.04
 _ZN9PimCommon24CustomToolsPluginManager11qt_metacallEN11QMetaObject4CallEiPPv@Base 4:16.04
 _ZN9PimCommon24CustomToolsPluginManager11qt_metacastEPKc@Base 4:16.04
 _ZN9PimCommon24CustomToolsPluginManager16staticMetaObjectE@Base 4:16.04
 _ZN9PimCommon24CustomToolsPluginManager4selfEv@Base 4:16.04
 _ZN9PimCommon24CustomToolsPluginManagerC1EP7QObject@Base 4:16.04
 _ZN9PimCommon24CustomToolsPluginManagerC2EP7QObject@Base 4:16.04
 _ZN9PimCommon24CustomToolsPluginManagerD0Ev@Base 4:16.04
 _ZN9PimCommon24CustomToolsPluginManagerD1Ev@Base 4:16.04
 _ZN9PimCommon24CustomToolsPluginManagerD2Ev@Base 4:16.04
 _ZN9PimCommon24CustomToolsViewInterface10insertTextERK7QString@Base 4:16.04
 _ZN9PimCommon24CustomToolsViewInterface11qt_metacallEN11QMetaObject4CallEiPPv@Base 4:16.04
 _ZN9PimCommon24CustomToolsViewInterface11qt_metacastEPKc@Base 4:16.04
 _ZN9PimCommon24CustomToolsViewInterface12activateViewEP7QWidget@Base 4:16.04
 _ZN9PimCommon24CustomToolsViewInterface14toolsWasClosedEv@Base 4:16.04
 _ZN9PimCommon24CustomToolsViewInterface16staticMetaObjectE@Base 4:16.04
 _ZN9PimCommon24CustomToolsViewInterface7setTextERK7QString@Base 4:16.04
 _ZN9PimCommon24CustomToolsViewInterfaceC1EP7QWidget@Base 4:16.04
 _ZN9PimCommon24CustomToolsViewInterfaceC2EP7QWidget@Base 4:16.04
 _ZN9PimCommon24CustomToolsViewInterfaceD0Ev@Base 4:16.04
 _ZN9PimCommon24CustomToolsViewInterfaceD1Ev@Base 4:16.04
 _ZN9PimCommon24CustomToolsViewInterfaceD2Ev@Base 4:16.04
 _ZN9PimCommon24GenericGrantleeFormatter10setContentERK7QString@Base 4:16.04
 _ZN9PimCommon24GenericGrantleeFormatter11qt_metacallEN11QMetaObject4CallEiPPv@Base 4:16.04
 _ZN9PimCommon24GenericGrantleeFormatter11qt_metacastEPKc@Base 4:16.04
 _ZN9PimCommon24GenericGrantleeFormatter15refreshTemplateEv@Base 4:16.04
 _ZN9PimCommon24GenericGrantleeFormatter16staticMetaObjectE@Base 4:16.04
 _ZN9PimCommon24GenericGrantleeFormatter18changeGrantleePathERK7QString@Base 4:16.04
 _ZN9PimCommon24GenericGrantleeFormatter22setDefaultHtmlMainFileERK7QString@Base 4:16.04
 _ZN9PimCommon24GenericGrantleeFormatterC1EP7QObject@Base 4:16.04
 _ZN9PimCommon24GenericGrantleeFormatterC1ERK7QStringS3_P7QObject@Base 4:16.04
 _ZN9PimCommon24GenericGrantleeFormatterC2EP7QObject@Base 4:16.04
 _ZN9PimCommon24GenericGrantleeFormatterC2ERK7QStringS3_P7QObject@Base 4:16.04
 _ZN9PimCommon24GenericGrantleeFormatterD0Ev@Base 4:16.04
 _ZN9PimCommon24GenericGrantleeFormatterD1Ev@Base 4:16.04
 _ZN9PimCommon24GenericGrantleeFormatterD2Ev@Base 4:16.04
 _ZN9PimCommon26ConfigurePluginsListWidget10initializeEv@Base 4:17.08.0
 _ZN9PimCommon26ConfigurePluginsListWidget11changeStateERK5QListIPNS0_10PluginItemEE@Base 4:17.08.0
 _ZN9PimCommon26ConfigurePluginsListWidget11qt_metacallEN11QMetaObject4CallEiPPv@Base 4:17.08.0
 _ZN9PimCommon26ConfigurePluginsListWidget11qt_metacastEPKc@Base 4:17.08.0
 _ZN9PimCommon26ConfigurePluginsListWidget11savePluginsERK7QStringS3_RK5QListIPNS0_10PluginItemEE@Base 4:17.08.0
 _ZN9PimCommon26ConfigurePluginsListWidget12fillTopItemsERK7QVectorINS_14PluginUtilDataEERK7QStringS8_S8_R5QListIPNS0_10PluginItemEES8_@Base 4:17.08.0
 _ZN9PimCommon26ConfigurePluginsListWidget15slotItemChangedEP15QTreeWidgetItemi@Base 4:17.08.0
 _ZN9PimCommon26ConfigurePluginsListWidget16configureClickedERK7QStringS3_@Base 4:17.08.0
 _ZN9PimCommon26ConfigurePluginsListWidget16staticMetaObjectE@Base 4:17.08.0
 _ZN9PimCommon26ConfigurePluginsListWidget18descriptionChangedERK7QString@Base 4:17.08.0
 _ZN9PimCommon26ConfigurePluginsListWidget19resetToUserSettingsERK5QListIPNS0_10PluginItemEE@Base 4:17.08.0
 _ZN9PimCommon26ConfigurePluginsListWidget20slotConfigureClickedEP7QAction@Base 4:17.08.0
 _ZN9PimCommon26ConfigurePluginsListWidget22doResetToDefaultsOtherEv@Base 4:17.08.0
 _ZN9PimCommon26ConfigurePluginsListWidget24doLoadFromGlobalSettingsEv@Base 4:17.08.0
 _ZN9PimCommon26ConfigurePluginsListWidget24slotItemSelectionChangedEv@Base 4:17.08.0
 _ZN9PimCommon26ConfigurePluginsListWidget4saveEv@Base 4:17.08.0
 _ZN9PimCommon26ConfigurePluginsListWidget7changedEv@Base 4:17.08.0
 _ZN9PimCommon26ConfigurePluginsListWidget8defaultsEv@Base 4:17.08.0
 _ZN9PimCommon26ConfigurePluginsListWidgetC1EP7QWidget@Base 4:17.08.0
 _ZN9PimCommon26ConfigurePluginsListWidgetC2EP7QWidget@Base 4:17.08.0
 _ZN9PimCommon26ConfigurePluginsListWidgetD0Ev@Base 4:17.08.0
 _ZN9PimCommon26ConfigurePluginsListWidgetD1Ev@Base 4:17.08.0
 _ZN9PimCommon26ConfigurePluginsListWidgetD2Ev@Base 4:17.08.0
 _ZN9PimCommon26LineEditWithAutoCorrection11qt_metacallEN11QMetaObject4CallEiPPv@Base 4:16.04
 _ZN9PimCommon26LineEditWithAutoCorrection11qt_metacastEPKc@Base 4:16.04
 _ZN9PimCommon26LineEditWithAutoCorrection13keyPressEventEP9QKeyEvent@Base 4:16.04
 _ZN9PimCommon26LineEditWithAutoCorrection16staticMetaObjectE@Base 4:16.04
 _ZN9PimCommon26LineEditWithAutoCorrection17setAutocorrectionEPNS_14AutoCorrectionE@Base 4:16.04
 _ZN9PimCommon26LineEditWithAutoCorrection25setAutocorrectionLanguageERK7QString@Base 4:16.04
 _ZN9PimCommon26LineEditWithAutoCorrectionC1EP7QWidgetRK7QString@Base 4:16.04
 _ZN9PimCommon26LineEditWithAutoCorrectionC2EP7QWidgetRK7QString@Base 4:16.04
 _ZN9PimCommon26LineEditWithAutoCorrectionD0Ev@Base 4:16.04
 _ZN9PimCommon26LineEditWithAutoCorrectionD1Ev@Base 4:16.04
 _ZN9PimCommon26LineEditWithAutoCorrectionD2Ev@Base 4:16.04
 _ZN9PimCommon27SieveSyntaxHighlighterRules15addCapabilitiesERK11QStringList@Base 4:16.04
 _ZN9PimCommon27SieveSyntaxHighlighterRulesC1Ev@Base 4:16.04
 _ZN9PimCommon27SieveSyntaxHighlighterRulesC2Ev@Base 4:16.04
 _ZN9PimCommon27SieveSyntaxHighlighterRulesD1Ev@Base 4:16.04
 _ZN9PimCommon27SieveSyntaxHighlighterRulesD2Ev@Base 4:16.04
 _ZN9PimCommon29ConfigureImmutableWidgetUtils10loadWidgetEP13KUrlRequesterPKN19KCoreConfigSkeleton10ItemStringE@Base 4:16.04
 _ZN9PimCommon29ConfigureImmutableWidgetUtils10loadWidgetEP8QSpinBoxPKN19KCoreConfigSkeleton7ItemIntE@Base 4:16.04
 _ZN9PimCommon29ConfigureImmutableWidgetUtils10loadWidgetEP8QSpinBoxPKN19KCoreConfigSkeleton8ItemUIntE@Base 4:16.04
 _ZN9PimCommon29ConfigureImmutableWidgetUtils10loadWidgetEP9QCheckBoxPKN19KCoreConfigSkeleton8ItemBoolE@Base 4:16.04
 _ZN9PimCommon29ConfigureImmutableWidgetUtils10loadWidgetEP9QComboBoxPKN19KCoreConfigSkeleton8ItemEnumE@Base 4:16.04
 _ZN9PimCommon29ConfigureImmutableWidgetUtils10loadWidgetEP9QGroupBoxP12QButtonGroupPKN19KCoreConfigSkeleton8ItemEnumE@Base 4:16.04
 _ZN9PimCommon29ConfigureImmutableWidgetUtils10loadWidgetEP9QGroupBoxPKN19KCoreConfigSkeleton8ItemBoolE@Base 4:16.04
 _ZN9PimCommon29ConfigureImmutableWidgetUtils10loadWidgetEP9QLineEditPKN19KCoreConfigSkeleton10ItemStringE@Base 4:16.04
 _ZN9PimCommon29ConfigureImmutableWidgetUtils10loadWidgetEPNS_22SimpleStringListEditorEPKN19KCoreConfigSkeleton14ItemStringListE@Base 4:16.04
 _ZN9PimCommon29ConfigureImmutableWidgetUtils11saveSpinBoxEP8QSpinBoxPN19KCoreConfigSkeleton7ItemIntE@Base 4:16.04
 _ZN9PimCommon29ConfigureImmutableWidgetUtils11saveSpinBoxEP8QSpinBoxPN19KCoreConfigSkeleton8ItemUIntE@Base 4:16.04
 _ZN9PimCommon29ConfigureImmutableWidgetUtils12saveCheckBoxEP9QCheckBoxPN19KCoreConfigSkeleton8ItemBoolE@Base 4:16.04
 _ZN9PimCommon29ConfigureImmutableWidgetUtils12saveComboBoxEP9QComboBoxPN19KCoreConfigSkeleton8ItemEnumE@Base 4:16.04
 _ZN9PimCommon29ConfigureImmutableWidgetUtils12saveGroupBoxEP9QGroupBoxPN19KCoreConfigSkeleton8ItemBoolE@Base 4:16.04
 _ZN9PimCommon29ConfigureImmutableWidgetUtils12saveLineEditEP9QLineEditPN19KCoreConfigSkeleton10ItemStringE@Base 4:16.04
 _ZN9PimCommon29ConfigureImmutableWidgetUtils15saveButtonGroupEP12QButtonGroupPN19KCoreConfigSkeleton8ItemEnumE@Base 4:16.04
 _ZN9PimCommon29ConfigureImmutableWidgetUtils16populateCheckBoxEP9QCheckBoxPKN19KCoreConfigSkeleton8ItemBoolE@Base 4:16.04
 _ZN9PimCommon29ConfigureImmutableWidgetUtils16saveUrlRequesterEP13KUrlRequesterPN19KCoreConfigSkeleton10ItemStringE@Base 4:16.04
 _ZN9PimCommon29ConfigureImmutableWidgetUtils19populateButtonGroupEP9QGroupBoxP12QButtonGroupiPKN19KCoreConfigSkeleton8ItemEnumE@Base 4:16.04
 _ZN9PimCommon29ConfigureImmutableWidgetUtils26saveSimpleStringListEditorEPNS_22SimpleStringListEditorEPN19KCoreConfigSkeleton14ItemStringListE@Base 4:16.04
 _ZN9PimCommon30AbstractGenericPluginInterface11qt_metacallEN11QMetaObject4CallEiPPv@Base 4:17.08.0
 _ZN9PimCommon30AbstractGenericPluginInterface11qt_metacastEPKc@Base 4:17.08.0
 _ZN9PimCommon30AbstractGenericPluginInterface15setParentWidgetEP7QWidget@Base 4:17.08.0
 _ZN9PimCommon30AbstractGenericPluginInterface16staticMetaObjectE@Base 4:17.08.0
 _ZN9PimCommon30AbstractGenericPluginInterface19emitPluginActivatedEPS0_@Base 4:17.08.0
 _ZN9PimCommon30AbstractGenericPluginInterface19showConfigureDialogEP7QWidget@Base 4:17.08.0
 _ZN9PimCommon30AbstractGenericPluginInterface9setPluginEPNS_21AbstractGenericPluginE@Base 4:17.08.0
 _ZN9PimCommon30AbstractGenericPluginInterfaceC1EP7QObject@Base 4:17.08.0
 _ZN9PimCommon30AbstractGenericPluginInterfaceC2EP7QObject@Base 4:17.08.0
 _ZN9PimCommon30AbstractGenericPluginInterfaceD0Ev@Base 4:17.08.0
 _ZN9PimCommon30AbstractGenericPluginInterfaceD1Ev@Base 4:17.08.0
 _ZN9PimCommon30AbstractGenericPluginInterfaceD2Ev@Base 4:17.08.0
 _ZN9PimCommon30RichTextEditWithAutoCorrection11qt_metacallEN11QMetaObject4CallEiPPv@Base 4:16.04
 _ZN9PimCommon30RichTextEditWithAutoCorrection11qt_metacastEPKc@Base 4:16.04
 _ZN9PimCommon30RichTextEditWithAutoCorrection13keyPressEventEP9QKeyEvent@Base 4:16.04
 _ZN9PimCommon30RichTextEditWithAutoCorrection16staticMetaObjectE@Base 4:16.04
 _ZN9PimCommon30RichTextEditWithAutoCorrection17setAutocorrectionEPNS_14AutoCorrectionE@Base 4:16.04
 _ZN9PimCommon30RichTextEditWithAutoCorrection25setAutocorrectionLanguageERK7QString@Base 4:16.04
 _ZN9PimCommon30RichTextEditWithAutoCorrectionC1EP7QWidget@Base 4:16.04
 _ZN9PimCommon30RichTextEditWithAutoCorrectionC2EP7QWidget@Base 4:16.04
 _ZN9PimCommon30RichTextEditWithAutoCorrectionD0Ev@Base 4:16.04
 _ZN9PimCommon30RichTextEditWithAutoCorrectionD1Ev@Base 4:16.04
 _ZN9PimCommon30RichTextEditWithAutoCorrectionD2Ev@Base 4:16.04
 _ZN9PimCommon4Util10invokeHelpERK7QStringS3_@Base 4:17.08.0
 _ZN9PimCommon4Util10loadToFileERK7QStringP7QWidgetRK4QUrlS3_@Base 4:16.04
 _ZN9PimCommon4Util10saveTextAsERK7QStringS3_P7QWidgetRK4QUrlS3_@Base 4:16.04
 _ZN9PimCommon4Util10saveToFileERK7QStringS3_@Base 4:16.04
 _ZN9PimCommon4Util14isImapResourceERK7QString@Base 4:16.04
 _ZN9PimCommon4Util17generateEmailListERK11QStringList@Base 4:17.08.0
 _ZN9PimCommon4Util27createImapSettingsInterfaceERK7QString@Base 4:16.04
 (optional=templinst|arch=)_ZNK12KConfigGroup9readEntryI10QByteArrayEET_PKcRKS2_@Base 4:16.04
 (optional=templinst)_ZNK12KConfigGroup9readEntryI5QSizeEET_PKcRKS2_@Base 4:16.04
 (optional=templinst)_ZNK12KConfigGroup9readEntryIiEE5QListIT_EPKcRKS3_@Base 4:16.04
 _ZNK9PimCommon11NetworkUtil12lowBandwidthEv@Base 4:16.04
 _ZNK9PimCommon13GenericPlugin10metaObjectEv@Base 4:16.04
 _ZNK9PimCommon14AutoCorrection13autoDetectURLERK7QString@Base 4:16.04
 _ZNK9PimCommon14AutoCorrection13isSuperScriptEv@Base 4:16.04
 _ZNK9PimCommon14AutoCorrection14isSingleSpacesEv@Base 4:16.04
 _ZNK9PimCommon14AutoCorrection15isAutoFormatUrlEv@Base 4:16.04
 _ZNK9PimCommon14AutoCorrection15isAutoFractionsEv@Base 4:16.04
 _ZNK9PimCommon14AutoCorrection16isFrenchLanguageEv@Base 4:16.04
 _ZNK9PimCommon14AutoCorrection18autocorrectEntriesEv@Base 4:16.04
 _ZNK9PimCommon14AutoCorrection18excludeToUppercaseERK7QString@Base 4:16.04
 _ZNK9PimCommon14AutoCorrection19isAutoBoldUnderlineEv@Base 4:16.04
 _ZNK9PimCommon14AutoCorrection19upperCaseExceptionsEv@Base 4:16.04
 _ZNK9PimCommon14AutoCorrection20isCapitalizeWeekDaysEv@Base 4:16.04
 _ZNK9PimCommon14AutoCorrection21isAddNonBreakingSpaceEv@Base 4:16.04
 _ZNK9PimCommon14AutoCorrection21isAdvancedAutocorrectEv@Base 4:16.04
 _ZNK9PimCommon14AutoCorrection21isReplaceDoubleQuotesEv@Base 4:16.04
 _ZNK9PimCommon14AutoCorrection21isReplaceSingleQuotesEv@Base 4:16.04
 _ZNK9PimCommon14AutoCorrection22isFixTwoUppercaseCharsEv@Base 4:16.04
 _ZNK9PimCommon14AutoCorrection23isEnabledAutoCorrectionEv@Base 4:16.04
 _ZNK9PimCommon14AutoCorrection23typographicDoubleQuotesEv@Base 4:16.04
 _ZNK9PimCommon14AutoCorrection23typographicSingleQuotesEv@Base 4:16.04
 _ZNK9PimCommon14AutoCorrection24twoUpperLetterExceptionsEv@Base 4:16.04
 _ZNK9PimCommon14AutoCorrection30isUppercaseFirstCharOfSentenceEv@Base 4:16.04
 _ZNK9PimCommon14AutoCorrection30typographicDefaultDoubleQuotesEv@Base 4:16.04
 _ZNK9PimCommon14AutoCorrection30typographicDefaultSingleQuotesEv@Base 4:16.04
 _ZNK9PimCommon14AutoCorrection8languageEv@Base 4:16.04
 _ZNK9PimCommon14CustomTreeView10metaObjectEv@Base 4:16.04
 _ZNK9PimCommon14CustomTreeView15showDefaultTextEv@Base 4:16.04
 _ZNK9PimCommon14NetworkManager10metaObjectEv@Base 4:17.08.0
 _ZNK9PimCommon14NetworkManager23networkConfigureManagerEv@Base 4:17.08.0
 _ZNK9PimCommon15MigrateFileInfo12filePatternsEv@Base 4:16.04
 _ZNK9PimCommon15MigrateFileInfo4pathEv@Base 4:16.04
 _ZNK9PimCommon15MigrateFileInfo4typeEv@Base 4:16.04
 _ZNK9PimCommon15MigrateFileInfo6folderEv@Base 4:16.04
 _ZNK9PimCommon15MigrateFileInfo7isValidEv@Base 4:16.04
 _ZNK9PimCommon15MigrateFileInfo7versionEv@Base 4:16.04
 _ZNK9PimCommon15MinimumComboBox10metaObjectEv@Base 4:16.04
 _ZNK9PimCommon15MinimumComboBox15minimumSizeHintEv@Base 4:16.04
 _ZNK9PimCommon15TemplateManager10metaObjectEv@Base 4:16.04
 _ZNK9PimCommon16LineEditPassword10metaObjectEv@Base 4:17.08.0
 _ZNK9PimCommon16LineEditPassword16passwordLineEditEv@Base 4:17.08.0
 _ZNK9PimCommon16LineEditPassword20toggleEchoModeActionEv@Base 4:17.08.0
 _ZNK9PimCommon16LineEditPassword23LineEditPasswordPrivate10metaObjectEv@Base 4:17.08.0
 _ZNK9PimCommon16LineEditPassword8passwordEv@Base 4:17.08.0
 _ZNK9PimCommon16RenameFileDialog10metaObjectEv@Base 4:16.04
 _ZNK9PimCommon16RenameFileDialog7newNameEv@Base 4:16.04
 _ZNK9PimCommon16TranslatorWidget10metaObjectEv@Base 4:16.04
 _ZNK9PimCommon17CustomToolsPlugin10metaObjectEv@Base 4:16.04
 _ZNK9PimCommon17PimCommonSettings10metaObjectEv@Base 4:16.04
 _ZNK9PimCommon18SpellCheckLineEdit10metaObjectEv@Base 4:16.04
 _ZNK9PimCommon18SpellCheckLineEdit15minimumSizeHintEv@Base 4:16.04
 _ZNK9PimCommon18SpellCheckLineEdit8sizeHintEv@Base 4:16.04
 _ZNK9PimCommon18TemplateListWidget10metaObjectEv@Base 4:16.04
 _ZNK9PimCommon18TemplateListWidget8mimeDataE5QListIP15QListWidgetItemE@Base 4:16.04
 _ZNK9PimCommon18TemplateListWidget9mimeTypesEv@Base 4:16.04
 _ZNK9PimCommon18TranslatorTextEdit10metaObjectEv@Base 4:16.04
 _ZNK9PimCommon19CustomToolsWidgetNg10actionListEv@Base 4:16.04
 _ZNK9PimCommon19CustomToolsWidgetNg10metaObjectEv@Base 4:16.04
 _ZNK9PimCommon19LogActivitiesDialog10metaObjectEv@Base 4:17.08.0
 _ZNK9PimCommon19LogActivitiesWidget10metaObjectEv@Base 4:17.08.0
 _ZNK9PimCommon19LogActivitiesWidget3logEv@Base 4:17.08.0
 _ZNK9PimCommon20AutoCorrectionWidget10metaObjectEv@Base 4:16.04
 _ZNK9PimCommon20GenericPluginManager10metaObjectEv@Base 4:16.04
 _ZNK9PimCommon20GenericPluginManager10pluginNameEv@Base 4:16.04
 _ZNK9PimCommon20GenericPluginManager11pluginsListEv@Base 4:16.04
 _ZNK9PimCommon20GenericPluginManager15configGroupNameEv@Base 4:17.08.0
 _ZNK9PimCommon20GenericPluginManager15pluginsDataListEv@Base 4:17.08.0
 _ZNK9PimCommon20GenericPluginManager15serviceTypeNameEv@Base 4:16.04
 _ZNK9PimCommon20GenericPluginManager22configPrefixSettingKeyEv@Base 4:17.08.0
 _ZNK9PimCommon20LogActivitiesManager10metaObjectEv@Base 4:17.08.0
 _ZNK9PimCommon20LogActivitiesManager19enableLogActivitiesEv@Base 4:17.08.0
 _ZNK9PimCommon20LogActivitiesManager3logEv@Base 4:17.08.0
 _ZNK9PimCommon21AbstractGenericPlugin10metaObjectEv@Base 4:17.08.0
 _ZNK9PimCommon21AbstractGenericPlugin17hasToolBarSupportEv@Base 4:17.08.0
 _ZNK9PimCommon21AbstractGenericPlugin18hasConfigureDialogEv@Base 4:17.08.0
 _ZNK9PimCommon21AbstractGenericPlugin19hasPopupMenuSupportEv@Base 4:17.08.0
 _ZNK9PimCommon21AbstractGenericPlugin9isEnabledEv@Base 4:17.08.0
 _ZNK9PimCommon21ConfigurePluginDialog10metaObjectEv@Base 4:17.08.0
 _ZNK9PimCommon21ConfigurePluginDialog9buttonBoxEv@Base 4:17.08.0
 _ZNK9PimCommon21KActionMenuChangeCase10metaObjectEv@Base 4:16.04
 _ZNK9PimCommon21KActionMenuChangeCase15lowerCaseActionEv@Base 4:16.04
 _ZNK9PimCommon21KActionMenuChangeCase15upperCaseActionEv@Base 4:16.04
 _ZNK9PimCommon21KActionMenuChangeCase17reverseCaseActionEv@Base 4:16.04
 _ZNK9PimCommon21KActionMenuChangeCase18sentenceCaseActionEv@Base 4:16.04
 _ZNK9PimCommon21LineEditWithCompleter10metaObjectEv@Base 4:16.04
 _ZNK9PimCommon22AutoCorrectionLanguage8languageEv@Base 4:16.04
 _ZNK9PimCommon22ConfigurePluginsWidget10metaObjectEv@Base 4:17.08.0
 _ZNK9PimCommon22ShareServiceUrlManager10metaObjectEv@Base 4:16.04
 _ZNK9PimCommon22ShareServiceUrlManager4menuEv@Base 4:16.04
 _ZNK9PimCommon22SieveSyntaxHighlighter10metaObjectEv@Base 4:16.04
 _ZNK9PimCommon22SimpleStringListEditor10metaObjectEv@Base 4:16.04
 _ZNK9PimCommon22SimpleStringListEditor10stringListEv@Base 4:16.04
 _ZNK9PimCommon22SimpleStringListEditor13selectedItemsEv@Base 4:16.04
 _ZNK9PimCommon22SimpleStringListEditor8sizeHintEv@Base 4:16.04
 _ZNK9PimCommon23MigrateApplicationFiles10metaObjectEv@Base 4:16.04
 _ZNK9PimCommon23MigrateApplicationFiles14configFileNameEv@Base 4:16.04
 _ZNK9PimCommon23MigrateApplicationFiles15applicationNameEv@Base 4:16.04
 _ZNK9PimCommon23MigrateApplicationFiles20currentConfigVersionEv@Base 4:16.04
 _ZNK9PimCommon23MigrateApplicationFiles7versionEv@Base 4:16.04
 _ZNK9PimCommon24CustomToolsPluginManager10metaObjectEv@Base 4:16.04
 _ZNK9PimCommon24CustomToolsPluginManager11pluginsListEv@Base 4:16.04
 _ZNK9PimCommon24CustomToolsViewInterface10metaObjectEv@Base 4:16.04
 _ZNK9PimCommon24CustomToolsViewInterface6actionEv@Base 4:16.04
 _ZNK9PimCommon24GenericGrantleeFormatter10metaObjectEv@Base 4:16.04
 _ZNK9PimCommon24GenericGrantleeFormatter12errorMessageEv@Base 4:16.04
 _ZNK9PimCommon24GenericGrantleeFormatter6renderERK5QHashI7QString8QVariantE@Base 4:16.04
 _ZNK9PimCommon26ConfigurePluginsListWidget10metaObjectEv@Base 4:17.08.0
 _ZNK9PimCommon26LineEditWithAutoCorrection10metaObjectEv@Base 4:16.04
 _ZNK9PimCommon26LineEditWithAutoCorrection14autocorrectionEv@Base 4:16.04
 _ZNK9PimCommon26SieveSyntaxHighlighterUtil16fullCapabilitiesEv@Base 4:16.04
 _ZNK9PimCommon27SieveSyntaxHighlighterRules5rulesEv@Base 4:16.04
 _ZNK9PimCommon30AbstractGenericPluginInterface10metaObjectEv@Base 4:17.08.0
 _ZNK9PimCommon30AbstractGenericPluginInterface12parentWidgetEv@Base 4:17.08.0
 _ZNK9PimCommon30AbstractGenericPluginInterface6pluginEv@Base 4:17.08.0
 _ZNK9PimCommon30RichTextEditWithAutoCorrection10metaObjectEv@Base 4:16.04
 _ZNK9PimCommon30RichTextEditWithAutoCorrection14autocorrectionEv@Base 4:16.04
 _ZTIN9PimCommon13GenericPluginE@Base 4:16.04
 _ZTIN9PimCommon14CustomTreeViewE@Base 4:16.04
 _ZTIN9PimCommon14NetworkManagerE@Base 4:17.08.0
 _ZTIN9PimCommon15MinimumComboBoxE@Base 4:16.04
 _ZTIN9PimCommon15TemplateManagerE@Base 4:16.04
 _ZTIN9PimCommon16LineEditPassword23LineEditPasswordPrivateE@Base 4:17.08.0
 _ZTIN9PimCommon16LineEditPasswordE@Base 4:17.08.0
 _ZTIN9PimCommon16RenameFileDialogE@Base 4:16.04
 _ZTIN9PimCommon16TranslatorWidgetE@Base 4:16.04
 _ZTIN9PimCommon17CustomToolsPluginE@Base 4:16.04
 _ZTIN9PimCommon17PimCommonSettingsE@Base 4:16.04
 _ZTIN9PimCommon18SpellCheckLineEditE@Base 4:16.04
 _ZTIN9PimCommon18TemplateListWidgetE@Base 4:16.04
 _ZTIN9PimCommon18TranslatorTextEditE@Base 4:16.04
 _ZTIN9PimCommon19CustomToolsWidgetNgE@Base 4:16.04
 _ZTIN9PimCommon19LogActivitiesDialogE@Base 4:17.08.0
 _ZTIN9PimCommon19LogActivitiesWidgetE@Base 4:17.08.0
 _ZTIN9PimCommon20AutoCorrectionWidgetE@Base 4:16.04
 _ZTIN9PimCommon20GenericPluginManagerE@Base 4:16.04
 _ZTIN9PimCommon20LogActivitiesManagerE@Base 4:17.08.0
 _ZTIN9PimCommon21AbstractGenericPluginE@Base 4:17.08.0
 _ZTIN9PimCommon21ConfigurePluginDialogE@Base 4:17.08.0
 _ZTIN9PimCommon21KActionMenuChangeCaseE@Base 4:16.04
 _ZTIN9PimCommon21LineEditWithCompleterE@Base 4:16.04
 _ZTIN9PimCommon21PimCommonSettingsBaseE@Base 4:16.04
 _ZTIN9PimCommon22AutoCorrectionLanguageE@Base 4:16.04
 _ZTIN9PimCommon22ConfigurePluginsWidgetE@Base 4:17.08.0
 _ZTIN9PimCommon22KPimPrintPreviewDialogE@Base 4:16.04
 _ZTIN9PimCommon22ShareServiceUrlManagerE@Base 4:16.04
 _ZTIN9PimCommon22SieveSyntaxHighlighterE@Base 4:16.04
 _ZTIN9PimCommon22SimpleStringListEditorE@Base 4:16.04
 _ZTIN9PimCommon23MigrateApplicationFilesE@Base 4:16.04
 _ZTIN9PimCommon24CustomToolsPluginManagerE@Base 4:16.04
 _ZTIN9PimCommon24CustomToolsViewInterfaceE@Base 4:16.04
 _ZTIN9PimCommon24GenericGrantleeFormatterE@Base 4:16.04
 _ZTIN9PimCommon26ConfigurePluginsListWidget10PluginItemE@Base 4:17.08.0
 _ZTIN9PimCommon26ConfigurePluginsListWidgetE@Base 4:17.08.0
 _ZTIN9PimCommon26LineEditWithAutoCorrectionE@Base 4:16.04
 _ZTIN9PimCommon30AbstractGenericPluginInterfaceE@Base 4:17.08.0
 _ZTIN9PimCommon30RichTextEditWithAutoCorrectionE@Base 4:16.04
 _ZTSN9PimCommon13GenericPluginE@Base 4:16.04
 _ZTSN9PimCommon14CustomTreeViewE@Base 4:16.04
 _ZTSN9PimCommon14NetworkManagerE@Base 4:17.08.0
 _ZTSN9PimCommon15MinimumComboBoxE@Base 4:16.04
 _ZTSN9PimCommon15TemplateManagerE@Base 4:16.04
 _ZTSN9PimCommon16LineEditPassword23LineEditPasswordPrivateE@Base 4:17.08.0
 _ZTSN9PimCommon16LineEditPasswordE@Base 4:17.08.0
 _ZTSN9PimCommon16RenameFileDialogE@Base 4:16.04
 _ZTSN9PimCommon16TranslatorWidgetE@Base 4:16.04
 _ZTSN9PimCommon17CustomToolsPluginE@Base 4:16.04
 _ZTSN9PimCommon17PimCommonSettingsE@Base 4:16.04
 _ZTSN9PimCommon18SpellCheckLineEditE@Base 4:16.04
 _ZTSN9PimCommon18TemplateListWidgetE@Base 4:16.04
 _ZTSN9PimCommon18TranslatorTextEditE@Base 4:16.04
 _ZTSN9PimCommon19CustomToolsWidgetNgE@Base 4:16.04
 _ZTSN9PimCommon19LogActivitiesDialogE@Base 4:17.08.0
 _ZTSN9PimCommon19LogActivitiesWidgetE@Base 4:17.08.0
 _ZTSN9PimCommon20AutoCorrectionWidgetE@Base 4:16.04
 _ZTSN9PimCommon20GenericPluginManagerE@Base 4:16.04
 _ZTSN9PimCommon20LogActivitiesManagerE@Base 4:17.08.0
 _ZTSN9PimCommon21AbstractGenericPluginE@Base 4:17.08.0
 _ZTSN9PimCommon21ConfigurePluginDialogE@Base 4:17.08.0
 _ZTSN9PimCommon21KActionMenuChangeCaseE@Base 4:16.04
 _ZTSN9PimCommon21LineEditWithCompleterE@Base 4:16.04
 _ZTSN9PimCommon21PimCommonSettingsBaseE@Base 4:16.04
 _ZTSN9PimCommon22AutoCorrectionLanguageE@Base 4:16.04
 _ZTSN9PimCommon22ConfigurePluginsWidgetE@Base 4:17.08.0
 _ZTSN9PimCommon22KPimPrintPreviewDialogE@Base 4:16.04
 _ZTSN9PimCommon22ShareServiceUrlManagerE@Base 4:16.04
 _ZTSN9PimCommon22SieveSyntaxHighlighterE@Base 4:16.04
 _ZTSN9PimCommon22SimpleStringListEditorE@Base 4:16.04
 _ZTSN9PimCommon23MigrateApplicationFilesE@Base 4:16.04
 _ZTSN9PimCommon24CustomToolsPluginManagerE@Base 4:16.04
 _ZTSN9PimCommon24CustomToolsViewInterfaceE@Base 4:16.04
 _ZTSN9PimCommon24GenericGrantleeFormatterE@Base 4:16.04
 _ZTSN9PimCommon26ConfigurePluginsListWidget10PluginItemE@Base 4:17.08.0
 _ZTSN9PimCommon26ConfigurePluginsListWidgetE@Base 4:17.08.0
 _ZTSN9PimCommon26LineEditWithAutoCorrectionE@Base 4:16.04
 _ZTSN9PimCommon30AbstractGenericPluginInterfaceE@Base 4:17.08.0
 _ZTSN9PimCommon30RichTextEditWithAutoCorrectionE@Base 4:16.04
 _ZTVN9PimCommon13GenericPluginE@Base 4:16.04
 _ZTVN9PimCommon14CustomTreeViewE@Base 4:16.04
 _ZTVN9PimCommon14NetworkManagerE@Base 4:17.08.0
 _ZTVN9PimCommon15MinimumComboBoxE@Base 4:16.04
 _ZTVN9PimCommon15TemplateManagerE@Base 4:16.04
 _ZTVN9PimCommon16LineEditPassword23LineEditPasswordPrivateE@Base 4:17.08.0
 _ZTVN9PimCommon16LineEditPasswordE@Base 4:17.08.0
 _ZTVN9PimCommon16RenameFileDialogE@Base 4:16.04
 _ZTVN9PimCommon16TranslatorWidgetE@Base 4:16.04
 _ZTVN9PimCommon17CustomToolsPluginE@Base 4:16.04
 _ZTVN9PimCommon17PimCommonSettingsE@Base 4:16.04
 _ZTVN9PimCommon18SpellCheckLineEditE@Base 4:16.04
 _ZTVN9PimCommon18TemplateListWidgetE@Base 4:16.04
 _ZTVN9PimCommon18TranslatorTextEditE@Base 4:16.04
 _ZTVN9PimCommon19CustomToolsWidgetNgE@Base 4:16.04
 _ZTVN9PimCommon19LogActivitiesDialogE@Base 4:17.08.0
 _ZTVN9PimCommon19LogActivitiesWidgetE@Base 4:17.08.0
 _ZTVN9PimCommon20AutoCorrectionWidgetE@Base 4:16.04
 _ZTVN9PimCommon20GenericPluginManagerE@Base 4:16.04
 _ZTVN9PimCommon20LogActivitiesManagerE@Base 4:17.08.0
 _ZTVN9PimCommon21AbstractGenericPluginE@Base 4:17.08.0
 _ZTVN9PimCommon21ConfigurePluginDialogE@Base 4:17.08.0
 _ZTVN9PimCommon21KActionMenuChangeCaseE@Base 4:16.04
 _ZTVN9PimCommon21LineEditWithCompleterE@Base 4:16.04
 _ZTVN9PimCommon21PimCommonSettingsBaseE@Base 4:16.04
 _ZTVN9PimCommon22AutoCorrectionLanguageE@Base 4:16.04
 _ZTVN9PimCommon22ConfigurePluginsWidgetE@Base 4:17.08.0
 _ZTVN9PimCommon22KPimPrintPreviewDialogE@Base 4:16.04
 _ZTVN9PimCommon22ShareServiceUrlManagerE@Base 4:16.04
 _ZTVN9PimCommon22SieveSyntaxHighlighterE@Base 4:16.04
 _ZTVN9PimCommon22SimpleStringListEditorE@Base 4:16.04
 _ZTVN9PimCommon23MigrateApplicationFilesE@Base 4:16.04
 _ZTVN9PimCommon24CustomToolsPluginManagerE@Base 4:16.04
 _ZTVN9PimCommon24CustomToolsViewInterfaceE@Base 4:16.04
 _ZTVN9PimCommon24GenericGrantleeFormatterE@Base 4:16.04
 _ZTVN9PimCommon26ConfigurePluginsListWidget10PluginItemE@Base 4:17.08.0
 _ZTVN9PimCommon26ConfigurePluginsListWidgetE@Base 4:17.08.0
 _ZTVN9PimCommon26LineEditWithAutoCorrectionE@Base 4:16.04
 _ZTVN9PimCommon30AbstractGenericPluginInterfaceE@Base 4:17.08.0
 _ZTVN9PimCommon30RichTextEditWithAutoCorrectionE@Base 4:16.04
 _ZZZN9PimCommon21PimCommonSettingsBase10setEnabledEbENKUlvE_clEvE15qstring_literal@Base 4:16.04
 _ZZZN9PimCommon21PimCommonSettingsBase14setSuperScriptEbENKUlvE_clEvE15qstring_literal@Base 4:16.04
 _ZZZN9PimCommon21PimCommonSettingsBase15setSingleSpacesEbENKUlvE_clEvE15qstring_literal@Base 4:16.04
 _ZZZN9PimCommon21PimCommonSettingsBase16setAutoFormatUrlEbENKUlvE_clEvE15qstring_literal@Base 4:16.04
 _ZZZN9PimCommon21PimCommonSettingsBase16setAutoFractionsEbENKUlvE_clEvE15qstring_literal@Base 4:16.04
 _ZZZN9PimCommon21PimCommonSettingsBase20setAutoBoldUnderlineEbENKUlvE_clEvE15qstring_literal@Base 4:16.04
 _ZZZN9PimCommon21PimCommonSettingsBase21setCapitalizeWeekDaysEbENKUlvE_clEvE15qstring_literal@Base 4:16.04
 _ZZZN9PimCommon21PimCommonSettingsBase22setAdvancedAutocorrectEbENKUlvE_clEvE15qstring_literal@Base 4:16.04
 _ZZZN9PimCommon21PimCommonSettingsBase22setReplaceDoubleQuotesEbENKUlvE_clEvE15qstring_literal@Base 4:16.04
 _ZZZN9PimCommon21PimCommonSettingsBase22setReplaceSingleQuotesEbENKUlvE_clEvE15qstring_literal@Base 4:16.04
 _ZZZN9PimCommon21PimCommonSettingsBase23setFixTwoUppercaseCharsEbENKUlvE_clEvE15qstring_literal@Base 4:16.04
 _ZZZN9PimCommon21PimCommonSettingsBase30setAddNonBreakingSpaceInFrenchEbENKUlvE_clEvE15qstring_literal@Base 4:16.04
 _ZZZN9PimCommon21PimCommonSettingsBase31setUppercaseFirstCharOfSentenceEbENKUlvE_clEvE15qstring_literal@Base 4:16.04
 (c++)"non-virtual thunk to PimCommon::AutoCorrectionLanguage::~AutoCorrectionLanguage()@Base" 4:16.04
 (c++)"non-virtual thunk to PimCommon::AutoCorrectionWidget::~AutoCorrectionWidget()@Base" 4:16.04
 (c++)"non-virtual thunk to PimCommon::ConfigurePluginDialog::~ConfigurePluginDialog()@Base" 4:17.08.0
 (c++)"non-virtual thunk to PimCommon::ConfigurePluginsListWidget::~ConfigurePluginsListWidget()@Base" 4:17.08.0
 (c++)"non-virtual thunk to PimCommon::ConfigurePluginsWidget::~ConfigurePluginsWidget()@Base" 4:17.08.0
 (c++)"non-virtual thunk to PimCommon::CustomToolsViewInterface::~CustomToolsViewInterface()@Base" 4:16.04
 (c++)"non-virtual thunk to PimCommon::CustomToolsWidgetNg::~CustomToolsWidgetNg()@Base" 4:16.04
 (c++)"non-virtual thunk to PimCommon::CustomTreeView::~CustomTreeView()@Base" 4:16.04
 (c++)"non-virtual thunk to PimCommon::KPimPrintPreviewDialog::~KPimPrintPreviewDialog()@Base" 4:16.04
 (c++)"non-virtual thunk to PimCommon::LineEditPassword::~LineEditPassword()@Base" 4:17.08.0
 (c++)"non-virtual thunk to PimCommon::LineEditWithAutoCorrection::~LineEditWithAutoCorrection()@Base" 4:16.04
 (c++)"non-virtual thunk to PimCommon::LineEditWithCompleter::~LineEditWithCompleter()@Base" 4:16.04
 (c++)"non-virtual thunk to PimCommon::LogActivitiesDialog::~LogActivitiesDialog()@Base" 4:17.08.0
 (c++)"non-virtual thunk to PimCommon::LogActivitiesWidget::~LogActivitiesWidget()@Base" 4:17.08.0
 (c++)"non-virtual thunk to PimCommon::RenameFileDialog::~RenameFileDialog()@Base" 4:16.04
 (c++)"non-virtual thunk to PimCommon::RichTextEditWithAutoCorrection::~RichTextEditWithAutoCorrection()@Base" 4:16.04
 (c++)"non-virtual thunk to PimCommon::SimpleStringListEditor::~SimpleStringListEditor()@Base" 4:16.04
 (c++)"non-virtual thunk to PimCommon::SpellCheckLineEdit::~SpellCheckLineEdit()@Base" 4:16.04
 (c++)"non-virtual thunk to PimCommon::TemplateListWidget::~TemplateListWidget()@Base" 4:16.04
 (c++)"non-virtual thunk to PimCommon::TranslatorWidget::~TranslatorWidget()@Base" 4:16.04
